target datalayout = "e-m:e-p270:32:32-p271:32:32-p272:64:64-i64:64-i128:128-f80:128-n8:16:32:64-S128"
target triple = "x86_64-pc-linux-gnu"

%"class.std::__cxx11::basic_string" = type { %"struct.std::__cxx11::basic_string<char>::_Alloc_hider", i64, %union.anon }
%"struct.std::__cxx11::basic_string<char>::_Alloc_hider" = type { ptr }
%union.anon = type { i64, [8 x i8] }
%struct.GeneratorExpressionContent = type { %struct.cmGeneratorExpressionEvaluator, %"class.std::vector", %"class.std::vector.3", ptr, i64 }
%struct.cmGeneratorExpressionEvaluator = type { ptr }
%"class.std::vector" = type { %"struct.std::_Vector_base" }
%"struct.std::_Vector_base" = type { %"struct.std::_Vector_base<std::unique_ptr<cmGeneratorExpressionEvaluator>, std::allocator<std::unique_ptr<cmGeneratorExpressionEvaluator>>>::_Vector_impl" }
%"struct.std::_Vector_base<std::unique_ptr<cmGeneratorExpressionEvaluator>, std::allocator<std::unique_ptr<cmGeneratorExpressionEvaluator>>>::_Vector_impl" = type { %"struct.std::_Vector_base<std::unique_ptr<cmGeneratorExpressionEvaluator>, std::allocator<std::unique_ptr<cmGeneratorExpressionEvaluator>>>::_Vector_impl_data" }
%"struct.std::_Vector_base<std::unique_ptr<cmGeneratorExpressionEvaluator>, std::allocator<std::unique_ptr<cmGeneratorExpressionEvaluator>>>::_Vector_impl_data" = type { ptr, ptr, ptr }
%"class.std::vector.3" = type { %"struct.std::_Vector_base.4" }
%"struct.std::_Vector_base.4" = type { %"struct.std::_Vector_base<std::vector<std::unique_ptr<cmGeneratorExpressionEvaluator>>, std::allocator<std::vector<std::unique_ptr<cmGeneratorExpressionEvaluator>>>>::_Vector_impl" }
%"struct.std::_Vector_base<std::vector<std::unique_ptr<cmGeneratorExpressionEvaluator>>, std::allocator<std::vector<std::unique_ptr<cmGeneratorExpressionEvaluator>>>>::_Vector_impl" = type { %"struct.std::_Vector_base<std::vector<std::unique_ptr<cmGeneratorExpressionEvaluator>>, std::allocator<std::vector<std::unique_ptr<cmGeneratorExpressionEvaluator>>>>::_Vector_impl_data" }
%"struct.std::_Vector_base<std::vector<std::unique_ptr<cmGeneratorExpressionEvaluator>>, std::allocator<std::vector<std::unique_ptr<cmGeneratorExpressionEvaluator>>>>::_Vector_impl_data" = type { ptr, ptr, ptr }
%"class.std::allocator" = type { i8 }

; Function Attrs: mustprogress uwtable
define dso_local void @_ZNK26GeneratorExpressionContent21GetOriginalExpressionB5cxx11Ev(ptr dead_on_unwind noalias writable sret(%"class.std::__cxx11::basic_string") align 8 %0, ptr noundef nonnull align 8 dereferenceable(72) %1) #6 align 2 personality ptr @__gxx_personality_v0 {
  %3 = alloca ptr, align 8
  %4 = alloca ptr, align 8
  %5 = alloca %"class.std::allocator", align 1
  %6 = alloca ptr, align 8
  %7 = alloca i32, align 4
  store ptr %0, ptr %3, align 8
  store ptr %1, ptr %4, align 8
  %8 = load ptr, ptr %4, align 8
  %9 = getelementptr inbounds %struct.GeneratorExpressionContent, ptr %8, i32 0, i32 3
  %10 = load ptr, ptr %9, align 8
  %11 = getelementptr inbounds %struct.GeneratorExpressionContent, ptr %8, i32 0, i32 4
  %12 = load i64, ptr %11, align 8
  call void @_ZNSaIcEC1Ev(ptr noundef nonnull align 1 dereferenceable(1) %5) #3
  invoke void @_ZNSt7__cxx1112basic_stringIcSt11char_traitsIcESaIcEEC1EPKcmRKS3_(ptr noundef nonnull align 8 dereferenceable(32) %0, ptr noundef %10, i64 noundef %12, ptr noundef nonnull align 1 dereferenceable(1) %5)
          to label %13 unwind label %14

13:                                               ; preds = %2
  call void @_ZNSaIcED1Ev(ptr noundef nonnull align 1 dereferenceable(1) %5) #3
  ret void

14:                                               ; preds = %2
  %15 = landingpad { ptr, i32 }
          cleanup
  %16 = extractvalue { ptr, i32 } %15, 0
  store ptr %16, ptr %6, align 8
  %17 = extractvalue { ptr, i32 } %15, 1
  store i32 %17, ptr %7, align 4
  call void @_ZNSaIcED1Ev(ptr noundef nonnull align 1 dereferenceable(1) %5) #3
  br label %18

18:                                               ; preds = %14
  %19 = load ptr, ptr %6, align 8
  %20 = load i32, ptr %7, align 4
  %21 = insertvalue { ptr, i32 } poison, ptr %19, 0
  %22 = insertvalue { ptr, i32 } %21, i32 %20, 1
  resume { ptr, i32 } %22
}